target datalayout = "e-m:e-p270:32:32-p271:32:32-p272:64:64-i64:64-i128:128-f80:128-n8:16:32:64-S128"
target triple = "x86_64-pc-linux-gnu"

%"class.std::_Function_base" = type { %"union.std::_Any_data", ptr }
%"union.std::_Any_data" = type { %"union.std::_Nocopy_types" }
%"union.std::_Nocopy_types" = type { { i64, i64 } }
%"class.std::__shared_count" = type { ptr }
%"class.std::shared_ptr" = type { %"class.std::__shared_ptr" }
%"class.std::__shared_ptr" = type { ptr, %"class.std::__shared_count" }
%"struct.open3d::io::ReadTriangleMeshOptions" = type { i8, i8, %"class.std::function.98" }
%"class.std::function.98" = type { %"class.std::_Function_base", ptr }
%"class.std::allocator.148" = type { i8 }
%"struct.std::_Sp_alloc_shared_tag" = type { ptr }

; Function Attrs: mustprogress nounwind ssp uwtable
define linkonce_odr noundef zeroext i1 @_ZNKSt14_Function_base8_M_emptyEv(ptr noundef nonnull align 8 dereferenceable(24) %0) #1 comdat align 2 {
  %2 = alloca ptr, align 8
  store ptr %0, ptr %2, align 8, !tbaa !199
  %3 = load ptr, ptr %2, align 8
  %4 = getelementptr inbounds nuw %"class.std::_Function_base", ptr %3, i32 0, i32 1
  %5 = load ptr, ptr %4, align 8, !tbaa !185
  %6 = icmp ne ptr %5, null
  %7 = xor i1 %6, true
  ret i1 %7
}

; Function Attrs: mustprogress nounwind ssp uwtable
define linkonce_odr void @_ZNSt12__shared_ptrIN6open3d1t8geometry12TriangleMeshELN9__gnu_cxx12_Lock_policyE2EE31_M_enable_shared_from_this_withIS3_S3_EENSt9enable_ifIXntsr15__has_esft_baseIT0_EE5valueEvE4typeEPT_(ptr noundef nonnull align 8 dereferenceable(16) %0, ptr noundef %1) #1 comdat align 2 {
  %3 = alloca ptr, align 8
  %4 = alloca ptr, align 8
  store ptr %0, ptr %3, align 8, !tbaa !378
  store ptr %1, ptr %4, align 8, !tbaa !154
  ret void
}

; Function Attrs: mustprogress nounwind ssp uwtable
define linkonce_odr noundef zeroext i1 @_ZNKSt8functionIFbdEEcvbEv(ptr noundef nonnull align 8 dereferenceable(32) %0) #1 comdat align 2 {
  %2 = alloca ptr, align 8
  store ptr %0, ptr %2, align 8, !tbaa !421
  %3 = load ptr, ptr %2, align 8
  %4 = call noundef zeroext i1 @_ZNKSt14_Function_base8_M_emptyEv(ptr noundef nonnull align 8 dereferenceable(24) %3)
  %5 = xor i1 %4, true
  ret i1 %5
}

; Function Attrs: mustprogress nounwind ssp uwtable
define linkonce_odr noundef ptr @_ZNKSt12__shared_ptrIN6open3d1t8geometry12TriangleMeshELN9__gnu_cxx12_Lock_policyE2EE3getEv(ptr noundef nonnull align 8 dereferenceable(16) %0) #1 comdat align 2 {
  %2 = alloca ptr, align 8
  store ptr %0, ptr %2, align 8, !tbaa !378
  %3 = load ptr, ptr %2, align 8
  %4 = getelementptr inbounds nuw %"class.std::__shared_ptr", ptr %3, i32 0, i32 0
  %5 = load ptr, ptr %4, align 8, !tbaa !383
  ret ptr %5
}

; Function Attrs: mustprogress nounwind ssp uwtable
define linkonce_odr void @_ZNSt14_Function_baseC2Ev(ptr noundef nonnull align 8 dereferenceable(24) %0) unnamed_addr #1 comdat align 2 {
  %2 = alloca ptr, align 8
  store ptr %0, ptr %2, align 8, !tbaa !199
  %3 = load ptr, ptr %2, align 8
  %4 = getelementptr inbounds nuw %"class.std::_Function_base", ptr %3, i32 0, i32 0
  store ptr null, ptr %4, align 8, !tbaa !20
  %5 = getelementptr inbounds nuw %"class.std::_Function_base", ptr %3, i32 0, i32 1
  store ptr null, ptr %5, align 8, !tbaa !185
  ret void
}

; Function Attrs: mustprogress ssp uwtable
define linkonce_odr void @_ZNSt12__shared_ptrIN6open3d1t8geometry12TriangleMeshELN9__gnu_cxx12_Lock_policyE2EEC2ISaIvEJEEESt20_Sp_alloc_shared_tagIT_EDpOT0_(ptr noundef nonnull align 8 dereferenceable(16) %0, ptr %1) unnamed_addr #3 comdat align 2 {
  %3 = alloca %"struct.std::_Sp_alloc_shared_tag", align 8
  %4 = alloca ptr, align 8
  %5 = alloca %"struct.std::_Sp_alloc_shared_tag", align 8
  %6 = getelementptr inbounds nuw %"struct.std::_Sp_alloc_shared_tag", ptr %3, i32 0, i32 0
  store ptr %1, ptr %6, align 8
  store ptr %0, ptr %4, align 8, !tbaa !378
  %7 = load ptr, ptr %4, align 8
  %8 = getelementptr inbounds nuw %"class.std::__shared_ptr", ptr %7, i32 0, i32 0
  store ptr null, ptr %8, align 8, !tbaa !383
  %9 = getelementptr inbounds nuw %"class.std::__shared_ptr", ptr %7, i32 0, i32 1
  %10 = getelementptr inbounds nuw %"class.std::__shared_ptr", ptr %7, i32 0, i32 0
  call void @llvm.memcpy.p0.p0.i64(ptr align 8 %5, ptr align 8 %3, i64 8, i1 false), !tbaa.struct !382
  %11 = getelementptr inbounds nuw %"struct.std::_Sp_alloc_shared_tag", ptr %5, i32 0, i32 0
  %12 = load ptr, ptr %11, align 8
  call void @_ZNSt14__shared_countILN9__gnu_cxx12_Lock_policyE2EEC2IN6open3d1t8geometry12TriangleMeshESaIvEJEEERPT_St20_Sp_alloc_shared_tagIT0_EDpOT1_(ptr noundef nonnull align 8 dereferenceable(8) %9, ptr noundef nonnull align 8 dereferenceable(8) %10, ptr %12)
  %13 = getelementptr inbounds nuw %"class.std::__shared_ptr", ptr %7, i32 0, i32 0
  %14 = load ptr, ptr %13, align 8, !tbaa !383
  call void @_ZNSt12__shared_ptrIN6open3d1t8geometry12TriangleMeshELN9__gnu_cxx12_Lock_policyE2EE31_M_enable_shared_from_this_withIS3_S3_EENSt9enable_ifIXntsr15__has_esft_baseIT0_EE5valueEvE4typeEPT_(ptr noundef nonnull align 8 dereferenceable(16) %7, ptr noundef %14) #7
  ret void
}

; Function Attrs: mustprogress nounwind ssp uwtable
define linkonce_odr void @_ZNSt14_Function_baseD2Ev(ptr noundef nonnull align 8 dereferenceable(24) %0) unnamed_addr #1 comdat align 2 personality ptr @__gxx_personality_v0 {
  %2 = alloca ptr, align 8
  store ptr %0, ptr %2, align 8, !tbaa !199
  %3 = load ptr, ptr %2, align 8
  %4 = getelementptr inbounds nuw %"class.std::_Function_base", ptr %3, i32 0, i32 1
  %5 = load ptr, ptr %4, align 8, !tbaa !185
  %6 = icmp ne ptr %5, null
  br i1 %6, label %7, label %14

7:                                                ; preds = %1
  %8 = getelementptr inbounds nuw %"class.std::_Function_base", ptr %3, i32 0, i32 1
  %9 = load ptr, ptr %8, align 8, !tbaa !185
  %10 = getelementptr inbounds nuw %"class.std::_Function_base", ptr %3, i32 0, i32 0
  %11 = getelementptr inbounds nuw %"class.std::_Function_base", ptr %3, i32 0, i32 0
  %12 = invoke noundef zeroext i1 %9(ptr noundef nonnull align 8 dereferenceable(16) %10, ptr noundef nonnull align 8 dereferenceable(16) %11, i32 noundef 3)
          to label %13 unwind label %15

13:                                               ; preds = %7
  br label %14

14:                                               ; preds = %13, %1
  ret void

15:                                               ; preds = %7
  %16 = landingpad { ptr, i32 }
          catch ptr null
  %17 = extractvalue { ptr, i32 } %16, 0
  call void @__clang_call_terminate(ptr %17) #31
  unreachable
}

; Function Attrs: mustprogress ssp uwtable
define linkonce_odr void @_ZNSt8functionIFbdEEC2ERKS1_(ptr noundef nonnull align 8 dereferenceable(32) %0, ptr noundef nonnull align 8 dereferenceable(32) %1) unnamed_addr #3 comdat align 2 personality ptr @__gxx_personality_v0 {
  %3 = alloca ptr, align 8
  %4 = alloca ptr, align 8
  %5 = alloca ptr, align 8
  %6 = alloca i32, align 4
  store ptr %0, ptr %3, align 8, !tbaa !421
  store ptr %1, ptr %4, align 8, !tbaa !421
  %7 = load ptr, ptr %3, align 8
  %8 = getelementptr inbounds i8, ptr %7, i64 0
  call void @llvm.memset.p0.i64(ptr align 8 %8, i8 0, i64 24, i1 false)
  call void @_ZNSt14_Function_baseC2Ev(ptr noundef nonnull align 8 dereferenceable(24) %7) #7
  %9 = getelementptr inbounds nuw %"class.std::function.98", ptr %7, i32 0, i32 1
  store ptr null, ptr %9, align 8, !tbaa !423
  %10 = load ptr, ptr %4, align 8, !tbaa !421
  %11 = call noundef zeroext i1 @_ZNKSt8functionIFbdEEcvbEv(ptr noundef nonnull align 8 dereferenceable(32) %10) #7
  br i1 %11, label %12, label %33

12:                                               ; preds = %2
  %13 = load ptr, ptr %4, align 8, !tbaa !421
  %14 = getelementptr inbounds nuw %"class.std::_Function_base", ptr %13, i32 0, i32 1
  %15 = load ptr, ptr %14, align 8, !tbaa !185
  %16 = getelementptr inbounds nuw %"class.std::_Function_base", ptr %7, i32 0, i32 0
  %17 = load ptr, ptr %4, align 8, !tbaa !421
  %18 = getelementptr inbounds nuw %"class.std::_Function_base", ptr %17, i32 0, i32 0
  %19 = invoke noundef zeroext i1 %15(ptr noundef nonnull align 8 dereferenceable(16) %16, ptr noundef nonnull align 8 dereferenceable(16) %18, i32 noundef 2)
          to label %20 unwind label %29

20:                                               ; preds = %12
  %21 = load ptr, ptr %4, align 8, !tbaa !421
  %22 = getelementptr inbounds nuw %"class.std::function.98", ptr %21, i32 0, i32 1
  %23 = load ptr, ptr %22, align 8, !tbaa !423
  %24 = getelementptr inbounds nuw %"class.std::function.98", ptr %7, i32 0, i32 1
  store ptr %23, ptr %24, align 8, !tbaa !423
  %25 = load ptr, ptr %4, align 8, !tbaa !421
  %26 = getelementptr inbounds nuw %"class.std::_Function_base", ptr %25, i32 0, i32 1
  %27 = load ptr, ptr %26, align 8, !tbaa !185
  %28 = getelementptr inbounds nuw %"class.std::_Function_base", ptr %7, i32 0, i32 1
  store ptr %27, ptr %28, align 8, !tbaa !185
  br label %33

29:                                               ; preds = %12
  %30 = landingpad { ptr, i32 }
          cleanup
  %31 = extractvalue { ptr, i32 } %30, 0
  store ptr %31, ptr %5, align 8
  %32 = extractvalue { ptr, i32 } %30, 1
  store i32 %32, ptr %6, align 4
  call void @_ZNSt14_Function_baseD2Ev(ptr noundef nonnull align 8 dereferenceable(24) %7) #7
  br label %34

33:                                               ; preds = %20, %2
  ret void

34:                                               ; preds = %29
  %35 = load ptr, ptr %5, align 8
  %36 = load i32, ptr %6, align 4
  %37 = insertvalue { ptr, i32 } poison, ptr %35, 0
  %38 = insertvalue { ptr, i32 } %37, i32 %36, 1
  resume { ptr, i32 } %38
}

; Function Attrs: mustprogress nounwind ssp uwtable
define linkonce_odr noundef ptr @_ZNKSt19__shared_ptr_accessIN6open3d1t8geometry12TriangleMeshELN9__gnu_cxx12_Lock_policyE2ELb0ELb0EE6_M_getEv(ptr noundef nonnull align 1 dereferenceable(1) %0) #1 comdat align 2 {
  %2 = alloca ptr, align 8
  store ptr %0, ptr %2, align 8, !tbaa !376
  %3 = load ptr, ptr %2, align 8
  %4 = call noundef ptr @_ZNKSt12__shared_ptrIN6open3d1t8geometry12TriangleMeshELN9__gnu_cxx12_Lock_policyE2EE3getEv(ptr noundef nonnull align 8 dereferenceable(16) %3) #7
  ret ptr %4
}

; Function Attrs: mustprogress nounwind ssp uwtable
define linkonce_odr void @_ZNSt8functionIFbdEEC2Ev(ptr noundef nonnull align 8 dereferenceable(32) %0) unnamed_addr #1 comdat align 2 {
  %2 = alloca ptr, align 8
  store ptr %0, ptr %2, align 8, !tbaa !421
  %3 = load ptr, ptr %2, align 8
  %4 = getelementptr inbounds i8, ptr %3, i64 0
  call void @llvm.memset.p0.i64(ptr align 8 %4, i8 0, i64 24, i1 false)
  call void @_ZNSt14_Function_baseC2Ev(ptr noundef nonnull align 8 dereferenceable(24) %3) #7
  %5 = getelementptr inbounds nuw %"class.std::function.98", ptr %3, i32 0, i32 1
  store ptr null, ptr %5, align 8, !tbaa !423
  ret void
}

; Function Attrs: mustprogress ssp uwtable
define linkonce_odr void @_ZNSt10shared_ptrIN6open3d1t8geometry12TriangleMeshEEC2ISaIvEJEEESt20_Sp_alloc_shared_tagIT_EDpOT0_(ptr noundef nonnull align 8 dereferenceable(16) %0, ptr %1) unnamed_addr #3 comdat align 2 {
  %3 = alloca %"struct.std::_Sp_alloc_shared_tag", align 8
  %4 = alloca ptr, align 8
  %5 = alloca %"struct.std::_Sp_alloc_shared_tag", align 8
  %6 = getelementptr inbounds nuw %"struct.std::_Sp_alloc_shared_tag", ptr %3, i32 0, i32 0
  store ptr %1, ptr %6, align 8
  store ptr %0, ptr %4, align 8, !tbaa !380
  %7 = load ptr, ptr %4, align 8
  call void @llvm.memcpy.p0.p0.i64(ptr align 8 %5, ptr align 8 %3, i64 8, i1 false), !tbaa.struct !382
  %8 = getelementptr inbounds nuw %"struct.std::_Sp_alloc_shared_tag", ptr %5, i32 0, i32 0
  %9 = load ptr, ptr %8, align 8
  call void @_ZNSt12__shared_ptrIN6open3d1t8geometry12TriangleMeshELN9__gnu_cxx12_Lock_policyE2EEC2ISaIvEJEEESt20_Sp_alloc_shared_tagIT_EDpOT0_(ptr noundef nonnull align 8 dereferenceable(16) %7, ptr %9)
  ret void
}

; Function Attrs: inlinehint mustprogress nounwind ssp uwtable
define linkonce_odr void @_ZN6open3d2io23ReadTriangleMeshOptionsD2Ev(ptr noundef nonnull align 8 dereferenceable(40) %0) unnamed_addr #6 comdat align 2 {
  %2 = alloca ptr, align 8
  store ptr %0, ptr %2, align 8, !tbaa !156
  %3 = load ptr, ptr %2, align 8
  %4 = getelementptr inbounds nuw %"struct.open3d::io::ReadTriangleMeshOptions", ptr %3, i32 0, i32 2
  call void @_ZNSt14_Function_baseD2Ev(ptr noundef nonnull align 8 dereferenceable(32) %4) #7
  ret void
}

; Function Attrs: inlinehint mustprogress ssp uwtable
define linkonce_odr void @_ZN6open3d2io23ReadTriangleMeshOptionsC2ERKS1_(ptr noundef nonnull align 8 dereferenceable(40) %0, ptr noundef nonnull align 8 dereferenceable(40) %1) unnamed_addr #17 comdat align 2 {
  %3 = alloca ptr, align 8
  %4 = alloca ptr, align 8
  store ptr %0, ptr %3, align 8, !tbaa !156
  store ptr %1, ptr %4, align 8, !tbaa !156
  %5 = load ptr, ptr %3, align 8
  %6 = getelementptr inbounds nuw %"struct.open3d::io::ReadTriangleMeshOptions", ptr %5, i32 0, i32 0
  %7 = load ptr, ptr %4, align 8
  %8 = getelementptr inbounds nuw %"struct.open3d::io::ReadTriangleMeshOptions", ptr %7, i32 0, i32 0
  call void @llvm.memcpy.p0.p0.i64(ptr align 8 %6, ptr align 8 %8, i64 2, i1 false)
  %9 = getelementptr inbounds nuw %"struct.open3d::io::ReadTriangleMeshOptions", ptr %5, i32 0, i32 2
  %10 = load ptr, ptr %4, align 8, !tbaa !156
  %11 = getelementptr inbounds nuw %"struct.open3d::io::ReadTriangleMeshOptions", ptr %10, i32 0, i32 2
  call void @_ZNSt8functionIFbdEEC2ERKS1_(ptr noundef nonnull align 8 dereferenceable(32) %9, ptr noundef nonnull align 8 dereferenceable(32) %11)
  ret void
}

; Function Attrs: mustprogress nounwind ssp uwtable
define linkonce_odr noundef nonnull align 8 dereferenceable(432) ptr @_ZNKSt19__shared_ptr_accessIN6open3d1t8geometry12TriangleMeshELN9__gnu_cxx12_Lock_policyE2ELb0ELb0EEdeEv(ptr noundef nonnull align 1 dereferenceable(1) %0) #1 comdat align 2 {
  %2 = alloca ptr, align 8
  store ptr %0, ptr %2, align 8, !tbaa !376
  %3 = load ptr, ptr %2, align 8
  br label %4

4:                                                ; preds = %1
  br label %5

5:                                                ; preds = %4
  br label %6

6:                                                ; preds = %5
  %7 = call noundef ptr @_ZNKSt19__shared_ptr_accessIN6open3d1t8geometry12TriangleMeshELN9__gnu_cxx12_Lock_policyE2ELb0ELb0EE6_M_getEv(ptr noundef nonnull align 1 dereferenceable(1) %3) #7
  ret ptr %7
}

; Function Attrs: inlinehint mustprogress nounwind ssp uwtable
define linkonce_odr void @_ZN6open3d2io23ReadTriangleMeshOptionsC2Ev(ptr noundef nonnull align 8 dereferenceable(40) %0) unnamed_addr #6 comdat align 2 {
  %2 = alloca ptr, align 8
  store ptr %0, ptr %2, align 8, !tbaa !156
  %3 = load ptr, ptr %2, align 8
  %4 = getelementptr inbounds nuw %"struct.open3d::io::ReadTriangleMeshOptions", ptr %3, i32 0, i32 0
  store i8 0, ptr %4, align 8, !tbaa !372
  %5 = getelementptr inbounds nuw %"struct.open3d::io::ReadTriangleMeshOptions", ptr %3, i32 0, i32 1
  store i8 0, ptr %5, align 1, !tbaa !367
  %6 = getelementptr inbounds nuw %"struct.open3d::io::ReadTriangleMeshOptions", ptr %3, i32 0, i32 2
  call void @_ZNSt8functionIFbdEEC2Ev(ptr noundef nonnull align 8 dereferenceable(32) %6) #7
  ret void
}

; Function Attrs: inlinehint mustprogress ssp uwtable
define linkonce_odr void @_ZSt11make_sharedIN6open3d1t8geometry12TriangleMeshEJEESt10shared_ptrINSt9enable_ifIXntsr8is_arrayIT_EE5valueES6_E4typeEEDpOT0_(ptr dead_on_unwind noalias writable sret(%"class.std::shared_ptr") align 8 %0) #17 comdat {
  %2 = alloca ptr, align 8
  %3 = alloca %"class.std::allocator.148", align 1
  %4 = alloca %"struct.std::_Sp_alloc_shared_tag", align 8
  store ptr %0, ptr %2, align 8
  call void @llvm.lifetime.start.p0(i64 1, ptr %3) #7
  %5 = getelementptr inbounds nuw %"struct.std::_Sp_alloc_shared_tag", ptr %4, i32 0, i32 0
  store ptr %3, ptr %5, align 8, !tbaa !370
  %6 = getelementptr inbounds nuw %"struct.std::_Sp_alloc_shared_tag", ptr %4, i32 0, i32 0
  %7 = load ptr, ptr %6, align 8
  call void @_ZNSt10shared_ptrIN6open3d1t8geometry12TriangleMeshEEC2ISaIvEJEEESt20_Sp_alloc_shared_tagIT_EDpOT0_(ptr noundef nonnull align 8 dereferenceable(16) %0, ptr %7)
  call void @llvm.lifetime.end.p0(i64 1, ptr %3) #7
  ret void
}

; Function Attrs: mustprogress ssp uwtable
define void @_ZN6open3d1t2io18CreateMeshFromFileERKNSt7__cxx1112basic_stringIcSt11char_traitsIcESaIcEEEb(ptr dead_on_unwind noalias writable sret(%"class.std::shared_ptr") align 8 %0, ptr noundef nonnull align 8 dereferenceable(32) %1, i1 noundef zeroext %2) #3 personality ptr @__gxx_personality_v0 {
  %4 = alloca ptr, align 8
  %5 = alloca ptr, align 8
  %6 = alloca i8, align 1
  %7 = alloca i1, align 1
  %8 = alloca %"struct.open3d::io::ReadTriangleMeshOptions", align 8
  %9 = alloca %"struct.open3d::io::ReadTriangleMeshOptions", align 8
  %10 = alloca ptr, align 8
  %11 = alloca i32, align 4
  store ptr %0, ptr %4, align 8
  store ptr %1, ptr %5, align 8, !tbaa !152
  %12 = zext i1 %2 to i8
  store i8 %12, ptr %6, align 1, !tbaa !98
  store i1 false, ptr %7, align 1
  call void @_ZSt11make_sharedIN6open3d1t8geometry12TriangleMeshEJEESt10shared_ptrINSt9enable_ifIXntsr8is_arrayIT_EE5valueES6_E4typeEEDpOT0_(ptr dead_on_unwind writable sret(%"class.std::shared_ptr") align 8 %0)
  call void @llvm.lifetime.start.p0(i64 40, ptr %8) #7
  call void @_ZN6open3d2io23ReadTriangleMeshOptionsC2Ev(ptr noundef nonnull align 8 dereferenceable(40) %8) #7
  %13 = load i8, ptr %6, align 1, !tbaa !98, !range !116, !noundef !117
  %14 = trunc i8 %13 to i1
  %15 = getelementptr inbounds nuw %"struct.open3d::io::ReadTriangleMeshOptions", ptr %8, i32 0, i32 1
  %16 = zext i1 %14 to i8
  store i8 %16, ptr %15, align 1, !tbaa !367
  %17 = load ptr, ptr %5, align 8, !tbaa !152
  %18 = call noundef nonnull align 8 dereferenceable(432) ptr @_ZNKSt19__shared_ptr_accessIN6open3d1t8geometry12TriangleMeshELN9__gnu_cxx12_Lock_policyE2ELb0ELb0EEdeEv(ptr noundef nonnull align 1 dereferenceable(1) %0) #7
  invoke void @_ZN6open3d2io23ReadTriangleMeshOptionsC2ERKS1_(ptr noundef nonnull align 8 dereferenceable(40) %9, ptr noundef nonnull align 8 dereferenceable(40) %8)
          to label %19 unwind label %23

19:                                               ; preds = %3
  %20 = invoke noundef zeroext i1 @_ZN6open3d1t2io16ReadTriangleMeshERKNSt7__cxx1112basic_stringIcSt11char_traitsIcESaIcEEERNS0_8geometry12TriangleMeshENS_2io23ReadTriangleMeshOptionsE(ptr noundef nonnull align 8 dereferenceable(32) %17, ptr noundef nonnull align 8 dereferenceable(432) %18, ptr noundef %9)
          to label %21 unwind label %27

21:                                               ; preds = %19
  call void @_ZN6open3d2io23ReadTriangleMeshOptionsD2Ev(ptr noundef nonnull align 8 dereferenceable(40) %9) #7
  store i1 true, ptr %7, align 1
  call void @_ZN6open3d2io23ReadTriangleMeshOptionsD2Ev(ptr noundef nonnull align 8 dereferenceable(40) %8) #7
  call void @llvm.lifetime.end.p0(i64 40, ptr %8) #7
  %22 = load i1, ptr %7, align 1
  br i1 %22, label %33, label %32

23:                                               ; preds = %3
  %24 = landingpad { ptr, i32 }
          cleanup
  %25 = extractvalue { ptr, i32 } %24, 0
  store ptr %25, ptr %10, align 8
  %26 = extractvalue { ptr, i32 } %24, 1
  store i32 %26, ptr %11, align 4
  br label %31

27:                                               ; preds = %19
  %28 = landingpad { ptr, i32 }
          cleanup
  %29 = extractvalue { ptr, i32 } %28, 0
  store ptr %29, ptr %10, align 8
  %30 = extractvalue { ptr, i32 } %28, 1
  store i32 %30, ptr %11, align 4
  call void @_ZN6open3d2io23ReadTriangleMeshOptionsD2Ev(ptr noundef nonnull align 8 dereferenceable(40) %9) #7
  br label %31

31:                                               ; preds = %27, %23
  call void @_ZN6open3d2io23ReadTriangleMeshOptionsD2Ev(ptr noundef nonnull align 8 dereferenceable(40) %8) #7
  call void @llvm.lifetime.end.p0(i64 40, ptr %8) #7
  call void @_ZNSt12__shared_ptrIN6open3d1t8geometry12TriangleMeshELN9__gnu_cxx12_Lock_policyE2EED2Ev(ptr noundef nonnull align 8 dereferenceable(16) %0) #7
  br label %34

32:                                               ; preds = %21
  call void @_ZNSt12__shared_ptrIN6open3d1t8geometry12TriangleMeshELN9__gnu_cxx12_Lock_policyE2EED2Ev(ptr noundef nonnull align 8 dereferenceable(16) %0) #7
  br label %33

33:                                               ; preds = %32, %21
  ret void

34:                                               ; preds = %31
  %35 = load ptr, ptr %10, align 8
  %36 = load i32, ptr %11, align 4
  %37 = insertvalue { ptr, i32 } poison, ptr %35, 0
  %38 = insertvalue { ptr, i32 } %37, i32 %36, 1
  resume { ptr, i32 } %38
}