; Function Attrs: mustprogress ssp uwtable
define void @_ZN6open3d1t2io18CreateMeshFromFileERKNSt7__cxx1112basic_stringIcSt11char_traitsIcESaIcEEEb(ptr dead_on_unwind noalias nonnull writable sret(%"class.std::shared_ptr") align 8 initializes((0, 8)) %0, ptr noundef nonnull align 8 dereferenceable(32) %1, i1 noundef zeroext %2) local_unnamed_addr #4 personality ptr @__gxx_personality_v0 {
_ZN6open3d2io23ReadTriangleMeshOptionsC2ERKS1_.exit:
  %3 = alloca %"class.std::allocator.148", align 1
  %4 = alloca %"struct.open3d::io::ReadTriangleMeshOptions", align 8
  %5 = alloca %"struct.open3d::io::ReadTriangleMeshOptions", align 8
  %6 = zext i1 %2 to i8
  tail call void @llvm.experimental.noalias.scope.decl(metadata !144)
  call void @llvm.lifetime.start.p0(i64 1, ptr nonnull %3) #37, !noalias !144
  store ptr null, ptr %0, align 8, !tbaa !147, !alias.scope !144
  %7 = getelementptr inbounds nuw i8, ptr %0, i64 8
  call void @_ZNSt14__shared_countILN9__gnu_cxx12_Lock_policyE2EEC2IN6open3d1t8geometry12TriangleMeshESaIvEJEEERPT_St20_Sp_alloc_shared_tagIT0_EDpOT1_(ptr noundef nonnull align 8 dereferenceable(8) %7, ptr noundef nonnull align 8 dereferenceable(16) %0, ptr nonnull %3)
  call void @llvm.lifetime.end.p0(i64 1, ptr nonnull %3) #37, !noalias !144
  call void @llvm.lifetime.start.p0(i64 40, ptr nonnull %4) #37
  store i8 0, ptr %4, align 8, !tbaa !150
  %8 = getelementptr inbounds nuw i8, ptr %4, i64 1
  %9 = getelementptr inbounds nuw i8, ptr %4, i64 8
  call void @llvm.memset.p0.i64(ptr noundef nonnull align 8 dereferenceable(32) %9, i8 0, i64 32, i1 false)
  store i8 %6, ptr %8, align 1, !tbaa !153
  %10 = load ptr, ptr %0, align 8, !tbaa !147
  %11 = load i16, ptr %4, align 8
  store i16 %11, ptr %5, align 8
  %12 = getelementptr inbounds nuw i8, ptr %5, i64 8
  %13 = getelementptr inbounds nuw i8, ptr %5, i64 24
  %14 = getelementptr inbounds nuw i8, ptr %4, i64 24
  call void @llvm.memset.p0.i64(ptr noundef nonnull align 8 dereferenceable(32) %12, i8 0, i64 32, i1 false)
  %15 = invoke noundef zeroext i1 @_ZN6open3d1t2io16ReadTriangleMeshERKNSt7__cxx1112basic_stringIcSt11char_traitsIcESaIcEEERNS0_8geometry12TriangleMeshENS_2io23ReadTriangleMeshOptionsE(ptr noundef nonnull align 8 dereferenceable(32) %1, ptr noundef nonnull align 8 dereferenceable(432) %10, ptr noundef nonnull %5)
          to label %16 unwind label %29

16:                                               ; preds = %_ZN6open3d2io23ReadTriangleMeshOptionsC2ERKS1_.exit
  %17 = load ptr, ptr %13, align 8, !tbaa !60
  %.not.i.i = icmp eq ptr %17, null
  br i1 %.not.i.i, label %_ZN6open3d2io23ReadTriangleMeshOptionsD2Ev.exit, label %18

18:                                               ; preds = %16
  %19 = invoke noundef zeroext i1 %17(ptr noundef nonnull align 8 dereferenceable(32) %12, ptr noundef nonnull align 8 dereferenceable(32) %12, i32 noundef 3)
          to label %_ZN6open3d2io23ReadTriangleMeshOptionsD2Ev.exit unwind label %20

20:                                               ; preds = %18
  %21 = landingpad { ptr, i32 }
          catch ptr null
  %22 = extractvalue { ptr, i32 } %21, 0
  call void @__clang_call_terminate(ptr %22) #38
  unreachable

_ZN6open3d2io23ReadTriangleMeshOptionsD2Ev.exit:  ; preds = %16, %18
  %23 = load ptr, ptr %14, align 8, !tbaa !60
  %.not.i.i6 = icmp eq ptr %23, null
  br i1 %.not.i.i6, label %_ZN6open3d2io23ReadTriangleMeshOptionsD2Ev.exit7, label %24

24:                                               ; preds = %_ZN6open3d2io23ReadTriangleMeshOptionsD2Ev.exit
  %25 = invoke noundef zeroext i1 %23(ptr noundef nonnull align 8 dereferenceable(32) %9, ptr noundef nonnull align 8 dereferenceable(32) %9, i32 noundef 3)
          to label %_ZN6open3d2io23ReadTriangleMeshOptionsD2Ev.exit7 unwind label %26

26:                                               ; preds = %24
  %27 = landingpad { ptr, i32 }
          catch ptr null
  %28 = extractvalue { ptr, i32 } %27, 0
  call void @__clang_call_terminate(ptr %28) #38
  unreachable

_ZN6open3d2io23ReadTriangleMeshOptionsD2Ev.exit7: ; preds = %_ZN6open3d2io23ReadTriangleMeshOptionsD2Ev.exit, %24
  call void @llvm.lifetime.end.p0(i64 40, ptr nonnull %4) #37
  ret void

29:                                               ; preds = %_ZN6open3d2io23ReadTriangleMeshOptionsC2ERKS1_.exit
  %30 = landingpad { ptr, i32 }
          cleanup
  %31 = load ptr, ptr %13, align 8, !tbaa !60
  %.not.i.i8 = icmp eq ptr %31, null
  br i1 %.not.i.i8, label %.body, label %32

32:                                               ; preds = %29
  %33 = invoke noundef zeroext i1 %31(ptr noundef nonnull align 8 dereferenceable(32) %12, ptr noundef nonnull align 8 dereferenceable(32) %12, i32 noundef 3)
          to label %.body unwind label %34

34:                                               ; preds = %32
  %35 = landingpad { ptr, i32 }
          catch ptr null
  %36 = extractvalue { ptr, i32 } %35, 0
  call void @__clang_call_terminate(ptr %36) #38
  unreachable

.body:                                            ; preds = %32, %29
  %37 = load ptr, ptr %14, align 8, !tbaa !60
  %.not.i.i10 = icmp eq ptr %37, null
  br i1 %.not.i.i10, label %_ZN6open3d2io23ReadTriangleMeshOptionsD2Ev.exit11, label %38

38:                                               ; preds = %.body
  %39 = invoke noundef zeroext i1 %37(ptr noundef nonnull align 8 dereferenceable(32) %9, ptr noundef nonnull align 8 dereferenceable(32) %9, i32 noundef 3)
          to label %_ZN6open3d2io23ReadTriangleMeshOptionsD2Ev.exit11 unwind label %40

40:                                               ; preds = %38
  %41 = landingpad { ptr, i32 }
          catch ptr null
  %42 = extractvalue { ptr, i32 } %41, 0
  call void @__clang_call_terminate(ptr %42) #38
  unreachable

_ZN6open3d2io23ReadTriangleMeshOptionsD2Ev.exit11: ; preds = %.body, %38
  call void @llvm.lifetime.end.p0(i64 40, ptr nonnull %4) #37
  call void @_ZNSt12__shared_ptrIN6open3d1t8geometry12TriangleMeshELN9__gnu_cxx12_Lock_policyE2EED2Ev(ptr noundef nonnull align 8 dereferenceable(16) %0) #37
  resume { ptr, i32 } %30
}